target datalayout = "e-m:e-p270:32:32-p271:32:32-p272:64:64-i64:64-i128:128-f80:128-n8:16:32:64-S128"
target triple = "x86_64-pc-linux-gnu"

%struct.evp_md_ctx_st = type { ptr, ptr, ptr, i64, ptr, ptr, ptr, ptr, ptr }
%struct.evp_md_st = type { i32, i32, i32, i64, i32, ptr, ptr, ptr, ptr, ptr, i32, i32, ptr, i32, ptr, ptr, ptr, %struct.CRYPTO_REF_COUNT, ptr, ptr, ptr, ptr, ptr, ptr, ptr, ptr, ptr, ptr, ptr, ptr, ptr, ptr, ptr }
%struct.CRYPTO_REF_COUNT = type { i32 }
%struct.evp_pkey_ctx_st = type { i32, ptr, ptr, ptr, ptr, %union.anon, %struct.anon.4, ptr, ptr, ptr, i32, i32, ptr, ptr, ptr, ptr, ptr, i8, ptr }
%union.anon = type { %struct.anon.0 }
%struct.anon.0 = type { ptr, ptr }
%struct.anon.4 = type { ptr, ptr, i64, i8 }
%struct.anon.1 = type { ptr, ptr }
%struct.evp_signature_st = type { i32, ptr, ptr, ptr, %struct.CRYPTO_REF_COUNT, ptr, ptr, ptr, ptr, ptr, ptr, ptr, ptr, ptr, ptr, ptr, ptr, ptr, ptr, ptr, ptr, ptr, ptr, ptr, ptr, ptr, ptr, ptr, ptr, ptr, ptr, ptr, ptr, ptr, ptr, ptr, ptr }

; Function Attrs: nounwind uwtable
define ptr @EVP_MD_CTX_gettable_params(ptr noundef %0) #0 {
  %2 = alloca ptr, align 8
  %3 = alloca ptr, align 8
  %4 = alloca ptr, align 8
  %5 = alloca ptr, align 8
  %6 = alloca i32, align 4
  store ptr %0, ptr %3, align 8, !tbaa !3
  call void @llvm.lifetime.start.p0(i64 8, ptr %4) #8
  call void @llvm.lifetime.start.p0(i64 8, ptr %5) #8
  %7 = load ptr, ptr %3, align 8, !tbaa !3
  %8 = icmp eq ptr %7, null
  br i1 %8, label %9, label %10

9:                                                ; preds = %1
  store ptr null, ptr %2, align 8
  store i32 1, ptr %6, align 4
  br label %81

10:                                               ; preds = %1
  %11 = load ptr, ptr %3, align 8, !tbaa !3
  %12 = getelementptr inbounds nuw %struct.evp_md_ctx_st, ptr %11, i32 0, i32 5
  %13 = load ptr, ptr %12, align 8, !tbaa !30
  store ptr %13, ptr %4, align 8, !tbaa !38
  %14 = load ptr, ptr %4, align 8, !tbaa !38
  %15 = icmp ne ptr %14, null
  br i1 %15, label %16, label %52

16:                                               ; preds = %10
  %17 = load ptr, ptr %4, align 8, !tbaa !38
  %18 = getelementptr inbounds nuw %struct.evp_pkey_ctx_st, ptr %17, i32 0, i32 0
  %19 = load i32, ptr %18, align 8, !tbaa !45
  %20 = icmp eq i32 %19, 256
  br i1 %20, label %26, label %21

21:                                               ; preds = %16
  %22 = load ptr, ptr %4, align 8, !tbaa !38
  %23 = getelementptr inbounds nuw %struct.evp_pkey_ctx_st, ptr %22, i32 0, i32 0
  %24 = load i32, ptr %23, align 8, !tbaa !45
  %25 = icmp eq i32 %24, 128
  br i1 %25, label %26, label %52

26:                                               ; preds = %21, %16
  %27 = load ptr, ptr %4, align 8, !tbaa !38
  %28 = getelementptr inbounds nuw %struct.evp_pkey_ctx_st, ptr %27, i32 0, i32 5
  %29 = getelementptr inbounds nuw %struct.anon.1, ptr %28, i32 0, i32 1
  %30 = load ptr, ptr %29, align 8, !tbaa !52
  %31 = icmp ne ptr %30, null
  br i1 %31, label %32, label %52

32:                                               ; preds = %26
  %33 = load ptr, ptr %4, align 8, !tbaa !38
  %34 = getelementptr inbounds nuw %struct.evp_pkey_ctx_st, ptr %33, i32 0, i32 5
  %35 = getelementptr inbounds nuw %struct.anon.1, ptr %34, i32 0, i32 0
  %36 = load ptr, ptr %35, align 8, !tbaa !52
  %37 = getelementptr inbounds nuw %struct.evp_signature_st, ptr %36, i32 0, i32 33
  %38 = load ptr, ptr %37, align 8, !tbaa !86
  %39 = icmp ne ptr %38, null
  br i1 %39, label %40, label %52

40:                                               ; preds = %32
  %41 = load ptr, ptr %4, align 8, !tbaa !38
  %42 = getelementptr inbounds nuw %struct.evp_pkey_ctx_st, ptr %41, i32 0, i32 5
  %43 = getelementptr inbounds nuw %struct.anon.1, ptr %42, i32 0, i32 0
  %44 = load ptr, ptr %43, align 8, !tbaa !52
  %45 = getelementptr inbounds nuw %struct.evp_signature_st, ptr %44, i32 0, i32 33
  %46 = load ptr, ptr %45, align 8, !tbaa !86
  %47 = load ptr, ptr %4, align 8, !tbaa !38
  %48 = getelementptr inbounds nuw %struct.evp_pkey_ctx_st, ptr %47, i32 0, i32 5
  %49 = getelementptr inbounds nuw %struct.anon.1, ptr %48, i32 0, i32 1
  %50 = load ptr, ptr %49, align 8, !tbaa !52
  %51 = call ptr %46(ptr noundef %50)
  store ptr %51, ptr %2, align 8
  store i32 1, ptr %6, align 4
  br label %81

52:                                               ; preds = %32, %26, %21, %10
  %53 = load ptr, ptr %3, align 8, !tbaa !3
  %54 = getelementptr inbounds nuw %struct.evp_md_ctx_st, ptr %53, i32 0, i32 1
  %55 = load ptr, ptr %54, align 8, !tbaa !16
  %56 = icmp ne ptr %55, null
  br i1 %56, label %57, label %80

57:                                               ; preds = %52
  %58 = load ptr, ptr %3, align 8, !tbaa !3
  %59 = getelementptr inbounds nuw %struct.evp_md_ctx_st, ptr %58, i32 0, i32 1
  %60 = load ptr, ptr %59, align 8, !tbaa !16
  %61 = getelementptr inbounds nuw %struct.evp_md_st, ptr %60, i32 0, i32 32
  %62 = load ptr, ptr %61, align 8, !tbaa !85
  %63 = icmp ne ptr %62, null
  br i1 %63, label %64, label %80

64:                                               ; preds = %57
  %65 = load ptr, ptr %3, align 8, !tbaa !3
  %66 = getelementptr inbounds nuw %struct.evp_md_ctx_st, ptr %65, i32 0, i32 1
  %67 = load ptr, ptr %66, align 8, !tbaa !16
  %68 = call ptr @EVP_MD_get0_provider(ptr noundef %67)
  %69 = call ptr @ossl_provider_ctx(ptr noundef %68)
  store ptr %69, ptr %5, align 8, !tbaa !61
  %70 = load ptr, ptr %3, align 8, !tbaa !3
  %71 = getelementptr inbounds nuw %struct.evp_md_ctx_st, ptr %70, i32 0, i32 1
  %72 = load ptr, ptr %71, align 8, !tbaa !16
  %73 = getelementptr inbounds nuw %struct.evp_md_st, ptr %72, i32 0, i32 32
  %74 = load ptr, ptr %73, align 8, !tbaa !85
  %75 = load ptr, ptr %3, align 8, !tbaa !3
  %76 = getelementptr inbounds nuw %struct.evp_md_ctx_st, ptr %75, i32 0, i32 7
  %77 = load ptr, ptr %76, align 8, !tbaa !10
  %78 = load ptr, ptr %5, align 8, !tbaa !61
  %79 = call ptr %74(ptr noundef %77, ptr noundef %78)
  store ptr %79, ptr %2, align 8
  store i32 1, ptr %6, align 4
  br label %81

80:                                               ; preds = %57, %52
  store ptr null, ptr %2, align 8
  store i32 1, ptr %6, align 4
  br label %81

81:                                               ; preds = %80, %64, %40, %9
  call void @llvm.lifetime.end.p0(i64 8, ptr %5) #8
  call void @llvm.lifetime.end.p0(i64 8, ptr %4) #8
  %82 = load ptr, ptr %2, align 8
  ret ptr %82
}