; Function Attrs: nounwind uwtable
define ptr @EVP_MD_CTX_gettable_params(ptr noundef readonly captures(address_is_null) %0) local_unnamed_addr #0 {
  %2 = icmp eq ptr %0, null
  br i1 %2, label %33, label %3

3:                                                ; preds = %1
  %4 = getelementptr inbounds nuw i8, ptr %0, i64 40
  %5 = load ptr, ptr %4, align 8, !tbaa !26
  %.not = icmp eq ptr %5, null
  br i1 %.not, label %18, label %6

6:                                                ; preds = %3
  %7 = load i32, ptr %5, align 8, !tbaa !31
  switch i32 %7, label %18 [
    i32 256, label %8
    i32 128, label %8
  ]

8:                                                ; preds = %6, %6
  %9 = getelementptr inbounds nuw i8, ptr %5, i64 48
  %10 = load ptr, ptr %9, align 8, !tbaa !40
  %.not22 = icmp eq ptr %10, null
  br i1 %.not22, label %18, label %11

11:                                               ; preds = %8
  %12 = getelementptr inbounds nuw i8, ptr %5, i64 40
  %13 = load ptr, ptr %12, align 8, !tbaa !40
  %14 = getelementptr inbounds nuw i8, ptr %13, i64 264
  %15 = load ptr, ptr %14, align 8, !tbaa !77
  %.not23 = icmp eq ptr %15, null
  br i1 %.not23, label %18, label %16

16:                                               ; preds = %11
  %17 = tail call ptr %15(ptr noundef nonnull %10) #8
  br label %33

18:                                               ; preds = %6, %11, %8, %3
  %19 = getelementptr inbounds nuw i8, ptr %0, i64 8
  %20 = load ptr, ptr %19, align 8, !tbaa !12
  %.not24 = icmp eq ptr %20, null
  br i1 %.not24, label %33, label %21

21:                                               ; preds = %18
  %22 = getelementptr inbounds nuw i8, ptr %20, i64 240
  %23 = load ptr, ptr %22, align 8, !tbaa !76
  %.not25 = icmp eq ptr %23, null
  br i1 %.not25, label %33, label %24

24:                                               ; preds = %21
  %25 = tail call ptr @EVP_MD_get0_provider(ptr noundef nonnull %20) #8
  %26 = tail call ptr @ossl_provider_ctx(ptr noundef %25) #8
  %27 = load ptr, ptr %19, align 8, !tbaa !12
  %28 = getelementptr inbounds nuw i8, ptr %27, i64 240
  %29 = load ptr, ptr %28, align 8, !tbaa !76
  %30 = getelementptr inbounds nuw i8, ptr %0, i64 56
  %31 = load ptr, ptr %30, align 8, !tbaa !3
  %32 = tail call ptr %29(ptr noundef %31, ptr noundef %26) #8
  br label %33

33:                                               ; preds = %18, %21, %1, %24, %16
  %.0 = phi ptr [ %17, %16 ], [ %32, %24 ], [ null, %1 ], [ null, %21 ], [ null, %18 ]
  ret ptr %.0
}